(lp0
VNxtDrive.GetStopBeforeDisconnect
p1
aVBall.SetZ
p2
aVImageSprite.GetPicture
p3
aVcontrols_getStartValue
p4
aVBall.SetY
p5
aVAccelerometerSensor.AccelerationChanged
p6
aVBall.SetPaintColor
p7
aVlists_from_csv_row
p8
aVPlayer.Vibrate
p9
aVAccelerometerSensor.GetAvailable
p10
aVCamera.TakePicture
p11
aVListPicker.SetBackgroundColor
p12
aVClock.AddDays
p13
aVLabel.GetVisible
p14
aVSound.Vibrate
p15
aVmath_number
p16
aVEmailPicker.GotFocus
p17
aVSpinner.GetHeight
p18
aVCheckBox.GotFocus
p19
aVImageSprite.CollidingWith
p20
aVFile.AppendToFile
p21
aVBall.SetX
p22
aVBluetoothClient.ReceiveSigned4ByteNumber
p23
aVPhoneNumberPicker.TouchUp
p24
aVAccelerometerSensor.GetEnabled
p25
aVTexting.GetPhoneNumber
p26
aVNone.het
p27
aVNotifier.ShowChooseDialog
p28
aVLabel.GetText
p29
aVVerticalArrangement.SetAlignHorizontal
p30
aVBall.GetSpeed
p31
aVNone.OtherScreenClosed
p32
aVWeb.SetRequestHeaders
p33
aVNone.block
p34
aVNone.GetText
p35
aVAccelerometerSensor.GetZAccel
p36
aVListView.GetVisible
p37
aVBluetoothClient.GetIsConnected
p38
aVImage.SetHeight
p39
aVTextBox.GetText
p40
aVActivityStarter.StartActivity
p41
aVNotifier.SetBackgroundColor
p42
aVTinyWebDB.GetValue
p43
aVVideoPlayer.Completed
p44
aVPhoneNumberPicker.Open
p45
aVSlider.GetVisible
p46
aVmath_subtract
p47
aVOrientationSensor.GetAngle
p48
aVActivityStarter.SetDataUri
p49
aVClock.Duration
p50
aVtext_join
p51
aVlocal_declaration_statement
p52
aVForm.SetScreenOrientation
p53
aVCheckBox.SetWidth
p54
aVListPicker.setproperty
p55
aVFusiontablesControl.DoQuery
p56
aVWebViewer.SetVisible
p57
aVForm.SetBackgroundColor
p58
aVClock.AddHours
p59
aVCanvas.GetFontSize
p60
aVSpinner.GetPrompt
p61
aVNone.setproperty
p62
aVListPicker.SetFontSize
p63
aVTimePicker.AfterTimeSet
p64
aVLabel.GetTextColor
p65
aVImage.GetVisible
p66
aVcolor_pink
p67
aVNone.ShowTextDialog
p68
aVNotifier.DismissProgressDialog
p69
aVNxtLightSensor.SetWithinRangeEventEnabled
p70
aVClock.DayOfMonth
p71
aVBluetoothServer.BytesAvailableToReceive
p72
aVButton.SetHeight
p73
aVListPicker.GetSelectionIndex
p74
aVTexting.SetReceivingEnabled
p75
aVNone.Month
p76
aVBall.GetEnabled
p77
aVBluetoothServer.GetIsAccepting
p78
aVcomponent_component_block
p79
aVWeb.PutText
p80
aVLocationSensor.GetProviderName
p81
aVLabel.SetWidth
p82
aVCanvas.GetVisible
p83
aVNxtColorSensor.WithinRange
p84
aVNone.BeforePicking
p85
aVPhoneNumberPicker.GetText
p86
aVTimePicker.SetVisible
p87
aVSlider.SetVisible
p88
aVTextBox.GetBackgroundColor
p89
aVNone.GotText
p90
aVClock.Minute
p91
aVVideoPlayer.SetFullScreen
p92
aVSpinner.GetVisible
p93
aVNone.det
p94
aVcontrols_forEach
p95
aVVideoPlayer.SetSource
p96
aVAccelerometerSensor.SetMinimumInterval
p97
aVBluetoothClient.ReceiveSigned2ByteNumber
p98
aVCanvas.setproperty
p99
aVListView.SetVisible
p100
aVSlider.GetColorRight
p101
aVNxtDirectCommands.GetBatteryLevel
p102
aVTableArrangement.setproperty
p103
aVmath_random_set_seed
p104
aVTextBox.SetNumbersOnly
p105
aVlists_remove_item
p106
aVCanvas.SetTextAlignment
p107
aVEmailPicker.SetFontSize
p108
aVNxtLightSensor.GetLightLevel
p109
aVCheckBox.SetTextColor
p110
aVlogic_or
p111
aVNxtLightSensor.SetTopOfRange
p112
aVForm.GetAlignHorizontal
p113
aVAccelerometerSensor.GetYAccel
p114
aVFile.GotText
p115
aVcolor_yellow
p116
aVNxtTouchSensor.SetPressedEventEnabled
p117
aVTextBox.setproperty
p118
aVmath_division
p119
aVNotifier.LogInfo
p120
aVDatePicker.SetTextColor
p121
aVAccelerometerSensor.GetXAccel
p122
aVNotifier.GetTextColor
p123
aVlists_position_in
p124
aVNone.Now
p125
aVTextToSpeech.GetPitch
p126
aVmath_divide
p127
aVBluetoothClient.GetEnabled
p128
aVPhoneNumberPicker.SetText
p129
aVTextBox.GotFocus
p130
aVListPicker.SetFontItalic
p131
aVCheckBox.SetHeight
p132
aVPhoneNumberPicker.GetPicture
p133
aVNxtDirectCommands.StartProgram
p134
aVCheckBox.SetEnabled
p135
aVBluetoothServer.Send4ByteNumber
p136
aVLabel.SetVisible
p137
aVVerticalArrangement.SetHeight
p138
aVImagePicker.TouchDown
p139
aVSpeechRecognizer.BeforeGettingText
p140
aVTinyDB.GetValue
p141
aVWeb.UriEncode
p142
aVButton.GetText
p143
aVListPicker.SetSelectionIndex
p144
aVListView.AfterPicking
p145
aVLabel.GetFontSize
p146
aVBall.GetInterval
p147
aVSharing.ShareMessage
p148
aVDatePicker.GetDay
p149
aVBluetoothClient.GetAddressesAndNames
p150
aVNxtDrive.TurnClockwiseIndefinitely
p151
aVCanvas.GetBackgroundImage
p152
aVPhoneNumberPicker.SetEnabled
p153
aVCanvas.SetFontSize
p154
aVLocationSensor.SetEnabled
p155
aVTwitter.SearchSuccessful
p156
aVcontrols_getPlainStartText
p157
aVLabel.GetWidth
p158
aVTextBox.HideKeyboard
p159
aVTinyWebDB.StoreValue
p160
aVTexting.SetGoogleVoiceEnabled
p161
aVImageSprite.SetWidth
p162
aVNxtSoundSensor.GetBelowRangeEventEnabled
p163
aVBall.Dragged
p164
aVButton.LongClick
p165
aVCanvas.Clear
p166
aVImageSprite.getproperty
p167
aVCamera.SetUseFront
p168
aVTimePicker.SetText
p169
aVCheckBox.SetBackgroundColor
p170
aVVideoPlayer.Pause
p171
aVPhoneNumberPicker.GetPhoneNumberList
p172
aVLocationSensor.GetTimeInterval
p173
aVListPicker.GetImage
p174
aVCanvas.GetPixelColor
p175
aVTextToSpeech.GetSpeechRate
p176
aVTextToSpeech.GetAvailableLanguages
p177
aVlists_copy
p178
aVSpinner.SetElementsFromString
p179
aVTinyDB.StoreValue
p180
aVProximitySensor.GetEnabled
p181
aVNotifier.ShowProgressDialog
p182
aVBarcodeScanner.GetResult
p183
aVClock.FormatDate
p184
aVHorizontalArrangement.SetHeight
p185
aVVideoPlayer.Start
p186
aVProximitySensor.SetEnabled
p187
aVNxtDrive.MoveBackwardIndefinitely
p188
aVTimePicker.LostFocus
p189
aVClock.AddSeconds
p190
aVNone.Start
p191
aVCanvas.SetLineWidth
p192
aVPasswordTextBox.LostFocus
p193
aVListPicker.GetElements
p194
aVLocationSensor.GetEnabled
p195
aVImageSprite.SetHeading
p196
aVNone.Play
p197
aVImageSprite.PointInDirection
p198
aVCanvas.component
p199
aVmath_is_a_number
p200
aVImage.GetWidth
p201
aVBluetoothClient.ReceiveSigned1ByteNumber
p202
aVTwitter.GetSearchResults
p203
aVBall.Bounce
p204
aVImagePicker.SetBackgroundColor
p205
aVLocationSensor.SetTimeInterval
p206
aVCanvas.Touched
p207
aVtext_trim
p208
aVDatePicker.SetWidth
p209
aVClock.MonthName
p210
aVWebViewer.GetCurrentUrl
p211
aVCanvas.Flung
p212
aVNone.Dragged
p213
aVSpinner.SetPrompt
p214
aVcolor_light_gray
p215
aVClock.SetTimerEnabled
p216
aVButton.LostFocus
p217
aVNone.fet
p218
aVcontrols_closeScreen
p219
aVHorizontalArrangement.GetVisible
p220
aVTextBox.SetBackgroundColor
p221
aVPhoneNumberPicker.AfterPicking
p222
aVVideoPlayer.GetFullScreen
p223
aVSpeechRecognizer.GetResult
p224
aVTinyDB.ClearTag
p225
aVmath_random_int
p226
aVActivityStarter.SetExtraKey
p227
aVBall.SetEnabled
p228
aVClock.GetTimerEnabled
p229
aVClock.Second
p230
aVmath_convert_angles
p231
aVNxtDirectCommands.PlayTone
p232
aVSoundRecorder.GetSavedRecording
p233
aVImageSprite.EdgeReached
p234
aVNone.Second
p235
aVButton.GotFocus
p236
aVCamera.AfterPicture
p237
aVNxtUltrasonicSensor.SetBottomOfRange
p238
aVWeb.HtmlTextDecode
p239
aVLocationSensor.StatusChanged
p240
aVCamcorder.AfterRecording
p241
aVlists_append_list
p242
aVListView.GetSelectionIndex
p243
aVWebViewer.GetWebViewString
p244
aVBall.SetInterval
p245
aVSpinner.DisplayDropdown
p246
aVOrientationSensor.GetRoll
p247
aVButton.SetText
p248
aVImagePicker.GetImage
p249
aVmath_format_as_decimal
p250
aVTinyDB.GetTags
p251
aVProximitySensor.ProximityChanged
p252
aVLabel.setproperty
p253
aVDatePicker.SetVisible
p254
aVNxtSoundSensor.GetAboveRangeEventEnabled
p255
aVNotifier.AfterChoosing
p256
aVTinyWebDB.ValueStored
p257
aVTableArrangement.SetHeight
p258
aVSound.SetSource
p259
aVEmailPicker.GetHeight
p260
aVBluetoothClient.SetCharacterEncoding
p261
aVPlayer.GetPlayOnlyInForeground
p262
aVClock.Hour
p263
aVtext_compare
p264
aVButton.setproperty
p265
aVNxtTouchSensor.IsPressed
p266
aVTexting.SendMessage
p267
aVcolor_magenta
p268
aVClock.MakeInstantFromMillis
p269
aVBluetoothServer.Send2ByteNumber
p270
aVWeb.XMLTextDecode
p271
aVBluetoothClient.ReceiveUnsigned2ByteNumber
p272
aVlists_select_item
p273
aVTextBox.GetVisible
p274
aVBluetoothServer.StopAccepting
p275
aVLocationSensor.LongitudeFromAddress
p276
aVBall.getproperty
p277
aVmath_round
p278
aVNxtSoundSensor.GetBottomOfRange
p279
aVTableArrangement.SetVisible
p280
aVCanvas.SetBackgroundImage
p281
aVTwitter.GetDirectMessages
p282
aVSound.Pause
p283
aVlogic_operation
p284
aVButton.SetWidth
p285
aVlists_add_items
p286
aVcontrols_do_then_return
p287
aVSlider.GetThumbPosition
p288
aVForm.GetAlignVertical
p289
aVButton.SetFontBold
p290
aVSound.Resume
p291
aVlists_to_csv_table
p292
aVClock.Now
p293
aVProximitySensor.GetDistance
p294
aVVideoPlayer.SeekTo
p295
aVListPicker.TouchUp
p296
aVPhoneCall.IncomingCallAnswered
p297
aVTwitter.SetConsumerKey
p298
aVImageSprite.SetEnabled
p299
aVNone.Speak
p300
aVWebViewer.CanGoForward
p301
aVFile.SaveFile
p302
aVHorizontalArrangement.SetAlignVertical
p303
aVDatePicker.SetText
p304
aVActivityStarter.SetExtraValue
p305
aVTwitter.Tweet
p306
aVImageSprite.GetWidth
p307
aVNxtColorSensor.GetDetectColor
p308
aVLabel.SetFontSize
p309
aVNxtColorSensor.GetColor
p310
aVTwitter.GetUsername
p311
aVWeb.GotFile
p312
aVWebViewer.GetHomeUrl
p313
aVImagePicker.GetBackgroundColor
p314
aVPhoneNumberPicker.GetPhoneNumber
p315
aVImageSprite.CollidedWith
p316
aVLocationSensor.SetProviderName
p317
aVListPicker.GetWidth
p318
aVWeb.PostTextWithEncoding
p319
aVContactPicker.Open
p320
aVNone.FormatDate
p321
aVSpinner.AfterSelecting
p322
aVFusiontablesControl.GetApiKey
p323
aVLabel.GetHeight
p324
aVBluetoothServer.GetCharacterEncoding
p325
aVlists_is_list
p326
aVcontrols_while
p327
aVNone.iet
p328
aVClock.Weekday
p329
aVImagePicker.GetEnabled
p330
aVYandexTranslate.RequestTranslation
p331
aVTexting.MessageReceived
p332
aVSpeechRecognizer.AfterGettingText
p333
aVActivityStarter.AfterActivity
p334
aVlists_insert_item
p335
aVFusiontablesControl.SetKeyFile
p336
aVCheckBox.GetEnabled
p337
aVFusiontablesControl.GetRows
p338
aVNone.Stop
p339
aVBluetoothClient.SendBytes
p340
aVNearField.SetReadMode
p341
aVNone.Connect
p342
aVWeb.SetAllowCookies
p343
aVCheckBox.SetVisible
p344
aVTwitter.FollowersReceived
p345
aVImagePicker.BeforePicking
p346
aVButton.GetFontSize
p347
aVTextBox.SetTextColor
p348
aVBluetoothServer.SetCharacterEncoding
p349
aVNone.PostText
p350
aVNone.Initialize
p351
aVCanvas.GetLineWidth
p352
aVglobal_declaration
p353
aVBluetoothClient.Send4ByteNumber
p354
aVNone.ForgetLogin
p355
aVListPicker.BeforePicking
p356
aVlists_is_in
p357
aVContactPicker.TouchDown
p358
aVNxtDirectCommands.PlaySoundFile
p359
aVClock.SystemTime
p360
aVContactPicker.SetImage
p361
aVBall.CollidedWith
p362
aVNxtColorSensor.ColorChanged
p363
aVBall.MoveTo
p364
aVImageSprite.Flung
p365
aVButton.SetTextColor
p366
aVVerticalArrangement.GetWidth
p367
aVNotifier.ShowMessageDialog
p368
aVTextBox.RequestFocus
p369
aVNone.get
p370
aVlogic_compare
p371
aVImagePicker.SetTextColor
p372
aVListPicker.SetHeight
p373
aVPhoneCall.PhoneCallEnded
p374
aVListPicker.GetBackgroundColor
p375
aVHorizontalArrangement.SetAlignHorizontal
p376
aVlogic_boolean
p377
aVNearField.TagRead
p378
aVPasswordTextBox.SetHint
p379
aVTextToSpeech.AfterSpeaking
p380
aVNxtDirectCommands.GetCurrentProgramName
p381
aVWebViewer.SetWebViewString
p382
aVTwitter.MentionsReceived
p383
aVNone.Timer
p384
aVCanvas.GetBackgroundPixelColor
p385
aVSharing.ShareFile
p386
aVFusiontablesControl.GotResult
p387
aVWebViewer.GetCurrentPageTitle
p388
aVTwitter.RequestMentions
p389
aVBall.PointInDirection
p390
aVBall.SetHeading
p391
aVcolor_cyan
p392
aVWeb.PostFile
p393
aVNone.GotResult
p394
aVClock.Timer
p395
aVSpinner.SetElements
p396
aVDatePicker.GetText
p397
aVTimePicker.GetText
p398
aVCanvas.DrawTextAtAngle
p399
aVVerticalArrangement.SetWidth
p400
aVSoundRecorder.StartedRecording
p401
aVTimePicker.GetHour
p402
aVListView.SetSelectionIndex
p403
aVContactPicker.GotFocus
p404
aVForm.ScreenOrientationChanged
p405
aVVerticalArrangement.GetHeight
p406
aVFile.ReadFrom
p407
aVListView.GetSelection
p408
aVSpinner.GetElements
p409
aVButton.SetVisible
p410
aVTextBox.SetText
p411
aVImagePicker.SetVisible
p412
aVNone.AfterTextInput
p413
aVPlayer.GetLoop
p414
aVmath_compare
p415
aVCanvas.GetPaintColor
p416
aVImageSprite.SetRotates
p417
aVImageSprite.component
p418
aVDatePicker.SetDateToDisplay
p419
aVmath_power
p420
aVImageSprite.Bounce
p421
aVImageSprite.PointTowards
p422
aVActivityStarter.GetResultUri
p423
aVCanvas.getproperty
p424
aVAccelerometerSensor.SetEnabled
p425
aVListPicker.TouchDown
p426
aVNone.Touched
p427
aVPasswordTextBox.getproperty
p428
aVActivityStarter.GetActivityPackage
p429
aVImageSprite.GetSpeed
p430
aVImageSprite.setproperty
p431
aVOrientationSensor.GetPitch
p432
aVCanvas.GetBackgroundColor
p433
aVButton.GetVisible
p434
aVTwitter.FriendTimelineReceived
p435
aVNone.DrawCircle
p436
aVImageSprite.NoLongerCollidingWith
p437
aVWeb.BuildRequestData
p438
aVSlider.SetMinValue
p439
aVVideoPlayer.SetVisible
p440
aVTexting.SetPhoneNumber
p441
aVtext_length
p442
aVButton.GetEnabled
p443
aVPlayer.Start
p444
aVSlider.SetColorRight
p445
aVNxtDrive.Stop
p446
aVListPicker.SetWidth
p447
aVPasswordTextBox.SetBackgroundColor
p448
aVlists_lookup_in_pairs
p449
aVcolor_orange
p450
aVTimePicker.TouchUp
p451
aVSoundRecorder.Stop
p452
aVForm.SetAlignHorizontal
p453
aVNearField.GetLastMessage
p454
aVNxtUltrasonicSensor.SetTopOfRange
p455
aVContactPicker.AfterPicking
p456
aVNone.bmock
p457
aVBall.EdgeReached
p458
aVSoundRecorder.SetSavedRecording
p459
aVTableArrangement.GetVisible
p460
aVForm.BackPressed
p461
aVClock.GetTimerInterval
p462
aVWebViewer.GoBack
p463
aVPlayer.SetPlayOnlyInForeground
p464
aVTextBox.GetTextColor
p465
aVBall.GetRadius
p466
aVmath_atan2
p467
aVcontrols_closeApplication
p468
aVcontrols_closeScreenWithValue
p469
aVTextToSpeech.GetLanguage
p470
aVBarcodeScanner.GetUseExternalScanner
p471
aVWeb.GetResponseFileName
p472
aVLabel.SetBackgroundColor
p473
aVNone.TurnCounterClockwiseIndefinitely
p474
aVWeb.SetSaveResponse
p475
aVImageSprite.GetHeading
p476
aVTimePicker.TouchDown
p477
aVBall.TouchUp
p478
aVlists_to_csv_row
p479
aVContactPicker.SetHeight
p480
aVBluetoothClient.BytesAvailableToReceive
p481
aVBluetoothClient.SetDelimiterByte
p482
aVCamcorder.RecordVideo
p483
aVWebViewer.GoHome
p484
aVBall.GetVisible
p485
aVCanvas.SetPaintColor
p486
aVBluetoothServer.SendText
p487
aVSlider.GetColorLeft
p488
aVWeb.PutTextWithEncoding
p489
aVNxtUltrasonicSensor.BelowRange
p490
aVAccelerometerSensor.SetSensitivity
p491
aVFusiontablesControl.GetQuery
p492
aVmath_cos
p493
aVTwitter.GetMentions
p494
aVtext
p495
aVDatePicker.LostFocus
p496
aVImageSprite.SetZ
p497
aVImagePicker.Open
p498
aVImageSprite.SetX
p499
aVImageSprite.SetY
p500
aVCanvas.DrawLine
p501
aVSharing.ShareFileWithMessage
p502
aVPhoneNumberPicker.GetImage
p503
aVPhoneCall.MakePhoneCall
p504
aVBall.GetHeading
p505
aVPasswordTextBox.SetHeight
p506
aVCanvas.Dragged
p507
aVLocationSensor.GetLatitude
p508
aVListView.SetElements
p509
aVNone.Year
p510
aVPlayer.SetLoop
p511
aVSound.Stop
p512
aVPlayer.Completed
p513
aVBluetoothClient.SetSecure
p514
aVSoundRecorder.StoppedRecording
p515
aVCanvas.SetBackgroundColor
p516
aVWeb.PostText
p517
aVSound.GetSource
p518
aVImagePicker.SetEnabled
p519
aVImagePicker.SetImage
p520
aVImageSprite.SetPicture
p521
aVBluetoothServer.AcceptConnectionWithUUID
p522
aVListPicker.SetVisible
p523
aVLocationSensor.GetCurrentAddress
p524
aVBluetoothClient.ConnectWithUUID
p525
aVBluetoothClient.ReceiveSignedBytes
p526
aVListPicker.SetElementsFromString
p527
aVActivityStarter.SetResultName
p528
aVSpinner.SetSelection
p529
aVlists_replace_item
p530
aVNone.Minute
p531
aVImageSprite.SetHeight
p532
aVNxtUltrasonicSensor.WithinRange
p533
aVPhoneNumberPicker.SetImage
p534
aVHorizontalArrangement.SetWidth
p535
aVNxtSoundSensor.SetTopOfRange
p536
aVProximitySensor.GetAvailable
p537
aVImagePicker.SetWidth
p538
aVTextBox.GetHint
p539
aVWebViewer.GetVisible
p540
aVNone.Changed
p541
aVTwitter.CheckAuthorized
p542
aVForm.SetOpenScreenAnimation
p543
aVClock.WeekdayName
p544
aVBall.CollidingWith
p545
aVlists_create_with
p546
aVButton.TouchUp
p547
aVTexting.SetMessage
p548
aVListView.GetElements
p549
aVBall.SetVisible
p550
aVCanvas.SaveAs
p551
aVListPicker.GetTitle
p552
aVNone.Click
p553
aVTwitter.RequestFollowers
p554
aVNone.getproperty
p555
aVNxtLightSensor.WithinRange
p556
aVtext_contains
p557
aVClock.SetTimerAlwaysFires
p558
aVtext_isEmpty
p559
aVBluetoothClient.SendText
p560
aVcolor_red
p561
aVEmailPicker.LostFocus
p562
aVTextBox.GetNumbersOnly
p563
aVNxtSoundSensor.BelowRange
p564
aVActivityStarter.SetActivityClass
p565
aVPasswordTextBox.SetText
p566
aVCanvas.GetHeight
p567
aVImageSprite.GetRotates
p568
aVNxtUltrasonicSensor.GetDistance
p569
aVlogic_false
p570
aVPasswordTextBox.GetEnabled
p571
aVNone.AfterGettingText
p572
aVListPicker.GetVisible
p573
aVTextToSpeech.SetSpeechRate
p574
aVBluetoothClient.GetAvailable
p575
aVVerticalArrangement.GetAlignHorizontal
p576
aVForm.SetAlignVertical
p577
aVCheckBox.GetChecked
p578
aVTimePicker.LaunchPicker
p579
aVSlider.SetColorLeft
p580
aVImageSprite.SetVisible
p581
aVTextBox.LostFocus
p582
aVPlayer.GetIsPlaying
p583
aVPhoneCall.GetPhoneNumber
p584
aVNearField.SetTextToWrite
p585
aVCheckBox.Changed
p586
aVVideoPlayer.GetDuration
p587
aVNone.Shaking
p588
aVTimePicker.SetWidth
p589
aVNone.AfterPicture
p590
aVprocedures_callnoreturn
p591
aVTwitter.Authorize
p592
aVlocal_declaration_expression
p593
aVForm.GetScreenOrientation
p594
aVLocationSensor.GetAltitude
p595
aVTinyWebDB.GotValue
p596
aVVideoPlayer.GetHeight
p597
aVNxtDrive.MoveBackward
p598
aVForm.SetCloseScreenAnimation
p599
aVcontrols_openAnotherScreen
p600
aVLocationSensor.GetHasAccuracy
p601
aVWebViewer.GoToUrl
p602
aVContactPicker.GetContactName
p603
aVContactPicker.GetPhoneNumber
p604
aVCheckBox.GetText
p605
aVWeb.GotText
p606
aVImagePicker.GetVisible
p607
aVClock.AddMinutes
p608
aVForm.SetScrollable
p609
aVNxtSoundSensor.SetAboveRangeEventEnabled
p610
aVPasswordTextBox.SetTextColor
p611
aVcolor_dark_gray
p612
aVNone.Clear
p613
aVmath_add
p614
aVActivityStarter.SetAction
p615
aVNone.jet
p616
aVBall.setproperty
p617
aVBall.PointTowards
p618
aVcolor_blue
p619
aVWeb.SetUrl
p620
aVNxtDrive.TurnCounterClockwiseIndefinitely
p621
aVDatePicker.GetMonthInText
p622
aVForm.GetWidth
p623
aVPasswordTextBox.GetHint
p624
aVBluetoothClient.ReceiveText
p625
aVPasswordTextBox.GotFocus
p626
aVWeb.GetUrl
p627
aVImagePicker.SetShowFeedback
p628
aVForm.GetBackgroundColor
p629
aVSpinner.SetVisible
p630
aVBluetoothServer.ReceiveText
p631
aVListPicker.LostFocus
p632
aVmath_floor
p633
aVForm.GetCloseScreenAnimation
p634
aVmath_random_float
p635
aVTextToSpeech.GetCountry
p636
aVForm.Initialize
p637
aVButton.SetBackgroundColor
p638
aVTextBox.SetVisible
p639
aVListView.SetTextColor
p640
aVCheckBox.GetTextColor
p641
aVCanvas.SetWidth
p642
aVNxtDrive.MoveForward
p643
aVNxtTouchSensor.Pressed
p644
aVtext_replace_all
p645
aVNxtSoundSensor.AboveRange
p646
aVLocationSensor.SetDistanceInterval
p647
aVTwitter.DirectMessage
p648
aVForm.GetOpenScreenAnimation
p649
aVTwitter.DeAuthorize
p650
aVImagePicker.AfterPicking
p651
aVImage.SetVisible
p652
aVNotifier.ShowAlert
p653
aVBall.MoveIntoBounds
p654
aVBluetoothClient.Disconnect
p655
aVButton.SetFontItalic
p656
aVLocationSensor.GetDistanceInterval
p657
aVTextBox.GetMultiLine
p658
aVDatePicker.GetMonth
p659
aVImageSprite.SetInterval
p660
aVlists_from_csv_table
p661
aVFusiontablesControl.SetApiKey
p662
aVPasswordTextBox.SetVisible
p663
aVNone.Disconnect
p664
aVVideoPlayer.SetHeight
p665
aVForm.OtherScreenClosed
p666
aVCheckBox.SetText
p667
aVSpinner.GetSelectionIndex
p668
aVImage.SetPicture
p669
aVListPicker.SetImage
p670
aVTextToSpeech.GetResult
p671
aVTinyWebDB.SetServiceURL
p672
aVHorizontalArrangement.setproperty
p673
aVNone.ShowMessageDialog
p674
aVWeb.ClearCookies
p675
aVBall.SetRadius
p676
aVButton.SetFontSize
p677
aVNone.DayOfMonth
p678
aVBarcodeScanner.SetUseExternalScanner
p679
aVWeb.Delete
p680
aVBluetoothServer.ReceiveSigned1ByteNumber
p681
aVContactPicker.SetText
p682
aVPhoneNumberPicker.TouchDown
p683
aVBall.GetPaintColor
p684
aVtext_starts_at
p685
aVCanvas.Save
p686
aVTinyWebDB.GetServiceURL
p687
aVcolor_green
p688
aVWeb.GetSaveResponse
p689
aVTwitter.IsAuthorized
p690
aVForm.SetBackgroundImage
p691
aVTextToSpeech.SetPitch
p692
aVActivityStarter.GetDataUri
p693
aVTimePicker.GetBackgroundColor
p694
aVFusiontablesControl.ForgetLogin
p695
aVPlayer.SetVolume
p696
aVSlider.GetMinValue
p697
aVButton.GetWidth
p698
aVBluetoothClient.IsDevicePaired
p699
aVcontrols_openAnotherScreenWithStartValue
p700
aVListPicker.GetFontSize
p701
aVNone.PositionChanged
p702
aVlogic_negate
p703
aVFusiontablesControl.InsertRow
p704
aVNone.DrawLine
p705
aVPasswordTextBox.GetText
p706
aVTextBox.GetWidth
p707
aVCanvas.SetVisible
p708
aVcolor_black
p709
aVTimePicker.GetMinute
p710
aVmath_on_list
p711
aVImageSprite.TouchUp
p712
aVCanvas.SetBackgroundPixelColor
p713
aVWebViewer.GetWidth
p714
aVSoundRecorder.AfterSoundRecorded
p715
aVBluetoothServer.ReceiveSignedBytes
p716
aVBall.TouchDown
p717
aVBluetoothServer.GetIsConnected
p718
aVCanvas.DrawText
p719
aVWebViewer.SetHeight
p720
aVSpeechRecognizer.GetText
p721
aVListPicker.AfterPicking
p722
aVTextBox.SetHint
p723
aVNxtLightSensor.AboveRange
p724
aVHorizontalArrangement.GetAlignHorizontal
p725
aVCanvas.DrawPoint
p726
aVForm.ErrorOccurred
p727
aVTextToSpeech.Speak
p728
aVContactPicker.GetEmailAddress
p729
aVmath_tan
p730
aVNone.BackPressed
p731
aVPlayer.Stop
p732
aVActivityStarter.SetDataType
p733
aVCanvas.GetWidth
p734
aVButton.SetShowFeedback
p735
aVForm.SetTitle
p736
aVOrientationSensor.SetEnabled
p737
aVSpinner.GetSelection
p738
aVCanvas.TouchUp
p739
aVTextBox.GetEnabled
p740
aVWebViewer.SetWidth
p741
aVLabel.SetHasMargins
p742
aVWebViewer.SetFollowLinks
p743
aVForm.SetAboutScreen
p744
aVImageSprite.GetHeight
p745
aVTwitter.TweetWithImage
p746
aVListView.SetSelection
p747
aVWebViewer.ClearLocations
p748
aVNone.SendQuery
p749
aVImagePicker.GetSelection
p750
aVWebViewer.CanGoBack
p751
aVcolor_make_color
p752
aVCanvas.SetHeight
p753
aVSoundRecorder.Start
p754
aVPasswordTextBox.setproperty
p755
aVlexical_variable_set
p756
aVDatePicker.SetEnabled
p757
aVBall.GetZ
p758
aVPhoneCall.SetPhoneNumber
p759
aVBall.GetX
p760
aVBall.GetY
p761
aVDatePicker.TouchDown
p762
aVPlayer.SetSource
p763
aVActivityStarter.SetActivityPackage
p764
aVForm.GetBackgroundImage
p765
aVcolor_split_color
p766
aVTextBox.SetHeight
p767
aVTableArrangement.SetWidth
p768
aVNearField.GetReadMode
p769
aVPhoneNumberPicker.BeforePicking
p770
aVNotifier.AfterTextInput
p771
aVClock.MakeInstant
p772
aVListPicker.SetElements
p773
aVTextBox.SetEnabled
p774
aVImagePicker.SetHeight
p775
aVYandexTranslate.GotTranslation
p776
aVNone.TurnClockwiseIndefinitely
p777
aVLabel.SetHeight
p778
aVcontrols_choose
p779
aVTexting.GetMessage
p780
aVPasswordTextBox.GetBackgroundColor
p781
aVImageSprite.GetEnabled
p782
aVActivityStarter.GetResult
p783
aVWeb.JsonTextDecode
p784
aVNone.ShowAlert
p785
aVNone.Completed
p786
aVClock.Month
p787
aVTextBox.getproperty
p788
aVListPicker.GetSelection
p789
aVLocationSensor.SetProviderLocked
p790
aVNone.AfterPicking
p791
aVButton.SetEnabled
p792
aVWeb.SetResponseFileName
p793
aVWebViewer.SetHomeUrl
p794
aVListPicker.SetText
p795
aVTinyWebDB.WebServiceError
p796
aVListPicker.SetSelection
p797
aVPhoneNumberPicker.GetContactName
p798
aVBluetoothClient.ReceiveUnsignedBytes
p799
aVForm.GetScrollable
p800
aVButton.GetTextColor
p801
aVLocationSensor.GetHasAltitude
p802
aVSlider.SetThumbPosition
p803
aVTimePicker.GetVisible
p804
aVListView.SetElementsFromString
p805
aVcontrols_forRange
p806
aVcontrols_if
p807
aVPasswordTextBox.SetWidth
p808
aVImage.GetPicture
p809
aVNxtLightSensor.SetAboveRangeEventEnabled
p810
aVcolor_white
p811
aVAccelerometerSensor.GetSensitivity
p812
aVTwitter.Follow
p813
aVPlayer.GetSource
p814
aVBluetoothServer.AcceptConnection
p815
aVFusiontablesControl.SetQuery
p816
aVTableArrangement.GetHeight
p817
aVNone.Vibrate
p818
aVLocationSensor.GetProviderLocked
p819
aVTextBox.SetWidth
p820
aVTexting.GetReceivingEnabled
p821
aVImageSprite.GetZ
p822
aVImageSprite.GetX
p823
aVImageSprite.GetY
p824
aVListView.SetHeight
p825
aVNone.GetValue
p826
aVBluetoothServer.Disconnect
p827
aVCheckBox.LostFocus
p828
aVVideoPlayer.SetWidth
p829
aVTableArrangement.GetWidth
p830
aVClock.FormatTime
p831
aVNone.GetMillis
p832
aVTimePicker.SetEnabled
p833
aVNearField.GetTextToWrite
p834
aVVerticalArrangement.GetVisible
p835
aVImagePicker.SetText
p836
aVOrientationSensor.OrientationChanged
p837
aVHorizontalArrangement.GetHeight
p838
aVOrientationSensor.GetAvailable
p839
aVPlayer.Pause
p840
aVBall.SetSpeed
p841
aVCheckBox.GetVisible
p842
aVlists_is_empty
p843
aVFusiontablesControl.GetRowsWithConditions
p844
aVClock.GetTimerAlwaysFires
p845
aVLocationSensor.LatitudeFromAddress
p846
aVtext_split
p847
aVVideoPlayer.GetVisible
p848
aVTextBox.GetFontSize
p849
aVNxtDrive.MoveForwardIndefinitely
p850
aVListPicker.Open
p851
aVNone.text
p852
aVActivityStarter.ResolveActivity
p853
aVTwitter.DirectMessagesReceived
p854
aVWebViewer.ClearCaches
p855
aVTimePicker.SetTextColor
p856
aVtext_segment
p857
aVHorizontalArrangement.SetVisible
p858
aVprocedures_defnoreturn
p859
aVNxtUltrasonicSensor.SetWithinRangeEventEnabled
p860
aVNxtDirectCommands.GetFirmwareVersion
p861
aVTwitter.RequestFriendTimeline
p862
aVOrientationSensor.GetMagnitude
p863
aVImageSprite.Touched
p864
aVDatePicker.GetYear
p865
aVNxtDrive.SetStopBeforeDisconnect
p866
aVPasswordTextBox.SetEnabled
p867
aVPasswordTextBox.GetVisible
p868
aVprocedures_callreturn
p869
aVContactPicker.GetText
p870
aVButton.Click
p871
aVListView.SetBackgroundColor
p872
aVTextBox.SetFontSize
p873
aVBarcodeScanner.AfterScan
p874
aVButton.TouchDown
p875
aVContactPicker.GetImage
p876
aVCheckBox.getproperty
p877
aVBluetoothClient.ReceiveUnsigned1ByteNumber
p878
aVTexting.GetGoogleVoiceEnabled
p879
aVImageSprite.GetInterval
p880
aVButton.GetBackgroundColor
p881
aVBluetoothServer.GetEnabled
p882
aVCamera.GetUseFront
p883
aVPhoneCall.PhoneCallStarted
p884
aVBluetoothClient.Connect
p885
aVlexical_variable_get
p886
aVImage.SetAnimation
p887
aVNxtDirectCommands.GetBrickName
p888
aVVerticalArrangement.setproperty
p889
aVDatePicker.GotFocus
p890
aVNxtLightSensor.SetGenerateLight
p891
aVSpinner.SetSelectionIndex
p892
aVLabel.GetBackgroundColor
p893
aVlists_pick_random_item
p894
aVOrientationSensor.GetEnabled
p895
aVBall.NoLongerCollidingWith
p896
aVBluetoothClient.GetDelimiterByte
p897
aVBall.Touched
p898
aVButton.GetImage
p899
aVImageSprite.MoveTo
p900
aVAccelerometerSensor.Shaking
p901
aVPhoneNumberPicker.GetEmailAddress
p902
aVListPicker.GetText
p903
aVBluetoothClient.Send2ByteNumber
p904
aVListPicker.GotFocus
p905
aVFile.Delete
p906
aVForm.GetTitle
p907
aVNone.StoreValue
p908
aVCanvas.TouchDown
p909
aVNone.TakePicture
p910
aVPhoneNumberPicker.GetEnabled
p911
aVAccelerometerSensor.GetMinimumInterval
p912
aVContactPicker.GetPicture
p913
aVVerticalArrangement.SetVisible
p914
aVPasswordTextBox.GetFontSize
p915
aVButton.GetHeight
p916
aVSound.SetMinimumInterval
p917
aVImageSprite.SetSpeed
p918
aVTextToSpeech.SetLanguage
p919
aVSlider.SetWidth
p920
aVDatePicker.LaunchPicker
p921
aVBarcodeScanner.DoScan
p922
aVTextToSpeech.BeforeSpeaking
p923
aVFusiontablesControl.SendQuery
p924
aVNotifier.LogError
p925
aVmath_abs
p926
aVTimePicker.SetTimeToDisplay
p927
aVLocationSensor.GetAccuracy
p928
aVActivityStarter.GetAction
p929
aVTwitter.SearchTwitter
p930
aVmath_ceiling
p931
aVBall.Flung
p932
aVPlayer.OtherPlayerStarted
p933
aVForm.GetHeight
p934
aVListPicker.GetHeight
p935
aVImageSprite.MoveIntoBounds
p936
aVListPicker.SetTitle
p937
aVLocationSensor.LocationChanged
p938
aVButton.GetShowFeedback
p939
aVContactPicker.SetEnabled
p940
aVCanvas.DrawCircle
p941
aVLabel.SetText
p942
aVClock.AddMonths
p943
aVButton.SetImage
p944
aVcontrols_eval_but_ignore
p945
aVtext_changeCase
p946
aVNotifier.LogWarning
p947
aVSlider.SetMaxValue
p948
aVTwitter.SetTwitPic_API_Key
p949
aVSlider.PositionChanged
p950
aVWebViewer.GoForward
p951
aVHorizontalArrangement.GetWidth
p952
aVTextBox.GetHeight
p953
aVSound.Play
p954
aVBluetoothServer.ConnectionAccepted
p955
aVNone.Hour
p956
aVBluetoothServer.Send1ByteNumber
p957
aVListPicker.SetTextColor
p958
aVImageSprite.GetVisible
p959
aVImage.GetHeight
p960
aVProximitySensor.GetMaximumRange
p961
aVButton.GetFontItalic
p962
aVImage.SetWidth
p963
aVmath_neg
p964
aVBluetoothClient.Send1ByteNumber
p965
aVSlider.GetMaxValue
p966
aVWeb.PutFile
p967
aVClock.GetMillis
p968
aVBluetoothServer.GetAvailable
p969
aVDatePicker.AfterDateSet
p970
aVLocationSensor.GetHasLongitudeLatitude
p971
aVcolor_gray
p972
aVSound.GetMinimumInterval
p973
aVNone.MoveBackwardIndefinitely
p974
aVDatePicker.TouchUp
p975
aVNotifier.ShowTextDialog
p976
aVClock.AddWeeks
p977
aVNearField.TagWritten
p978
aVLocationSensor.GetAvailableProviders
p979
aVWeb.Get
p980
aVNone.spaces
p981
aVClock.Year
p982
aVmath_multiply
p983
aVEmailPicker.GetText
p984
aVTimePicker.GotFocus
p985
aVListPicker.SetEnabled
p986
aVprocedures_defreturn
p987
aVForm.GetAboutScreen
p988
aVVerticalArrangement.SetAlignVertical
p989
aVNone.GotValue
p990
aVmath_trig
p991
aVNotifier.SetTextColor
p992
aVTwitter.SetConsumerSecret
p993
aVClock.FormatDateTime
p994
aVImageSprite.Dragged
p995
aVTextBox.SetMultiLine
p996
aVmath_single
p997
aVcontrols_closeScreenWithPlainText
p998
aVlists_length
p999
aVTinyDB.ClearAll
p1000
aVLocationSensor.GetLongitude
p1001
aVTwitter.RequestDirectMessages
p1002
aVCheckBox.SetChecked
p1003
aVLabel.SetTextColor
p1004
aVOrientationSensor.GetAzimuth
p1005
aVNone.GoHome
p1006
aVImageSprite.TouchDown
p1007
aVClock.SetTimerInterval
p1008
aVVideoPlayer.SetVolume
p1009
aVEmailPicker.SetHint
p1010
aVActivityStarter.GetDataType
p1011
aVNxtSoundSensor.GetSoundLevel
p1012
aVTextToSpeech.SetCountry
p1013
a.