(lp0
Vmath_trig
p1
aVImageSprite.SetInterval
p2
aVcontrols_getStartValue
p3
aVBall.SetY
p4
aVAccelerometerSensor.AccelerationChanged
p5
aVBall.SetPaintColor
p6
aVPlayer.Vibrate
p7
aVCamera.TakePicture
p8
aVLabel.GetVisible
p9
aVSound.Vibrate
p10
aVmath_number
p11
aVSpinner.GetHeight
p12
aVFile.AppendToFile
p13
aVBall.SetX
p14
aVTextBox.GotFocus
p15
aVNotifier.ShowChooseDialog
p16
aVLabel.GetText
p17
aVVerticalArrangement.SetAlignHorizontal
p18
aVBall.GetSpeed
p19
aVWeb.SetRequestHeaders
p20
aVBluetoothClient.GetIsConnected
p21
aVImage.SetHeight
p22
aVTextBox.GetText
p23
aVActivityStarter.StartActivity
p24
aVNotifier.SetBackgroundColor
p25
aVVideoPlayer.Completed
p26
aVPhoneNumberPicker.Open
p27
aVClock.MakeInstantFromMillis
p28
aVmath_subtract
p29
aVOrientationSensor.GetAngle
p30
aVClock.Duration
p31
aVCanvas.DrawLine
p32
aVlocal_declaration_statement
p33
aVForm.SetScreenOrientation
p34
aVWebViewer.SetVisible
p35
aVForm.SetBackgroundColor
p36
aVCanvas.GetFontSize
p37
aVTimePicker.AfterTimeSet
p38
aVImage.GetVisible
p39
aVcolor_pink
p40
aVClock.DayOfMonth
p41
aVBluetoothServer.BytesAvailableToReceive
p42
aVButton.SetHeight
p43
aVListPicker.GetSelectionIndex
p44
aVBall.GetEnabled
p45
aVBluetoothServer.GetIsAccepting
p46
aVcomponent_component_block
p47
aVWeb.PutText
p48
aVLocationSensor.GetProviderName
p49
aVLabel.SetWidth
p50
aVCanvas.GetVisible
p51
aVNxtColorSensor.WithinRange
p52
aVSlider.SetVisible
p53
aVTextBox.GetBackgroundColor
p54
aVClock.Minute
p55
aVVideoPlayer.SetFullScreen
p56
aVNone.det
p57
aVlogic_false
p58
aVVideoPlayer.SetSource
p59
aVAccelerometerSensor.SetMinimumInterval
p60
aVLocationSensor.GetAltitude
p61
aVListView.SetVisible
p62
aVLocationSensor.GetAccuracy
p63
aVTextBox.SetNumbersOnly
p64
aVlists_remove_item
p65
aVNxtLightSensor.GetLightLevel
p66
aVlogic_or
p67
aVNxtLightSensor.SetTopOfRange
p68
aVAccelerometerSensor.GetYAccel
p69
aVFile.GotText
p70
aVcolor_yellow
p71
aVNxtTouchSensor.SetPressedEventEnabled
p72
aVmath_division
p73
aVNotifier.LogInfo
p74
aVAccelerometerSensor.GetXAccel
p75
aVlists_position_in
p76
aVForm.GetAboutScreen
p77
aVmath_divide
p78
aVBluetoothClient.GetEnabled
p79
aVPhoneNumberPicker.SetText
p80
aVcontrols_choose
p81
aVListPicker.SetFontItalic
p82
aVPhoneNumberPicker.GetPicture
p83
aVCanvas.SetLineWidth
p84
aVLabel.SetVisible
p85
aVOrientationSensor.GetMagnitude
p86
aVTinyDB.GetValue
p87
aVWeb.UriEncode
p88
aVButton.GetText
p89
aVListPicker.SetSelectionIndex
p90
aVPlayer.SetLoop
p91
aVLabel.GetFontSize
p92
aVBall.GetInterval
p93
aVSharing.ShareMessage
p94
aVDatePicker.GetDay
p95
aVBluetoothClient.GetAddressesAndNames
p96
aVNxtDrive.TurnClockwiseIndefinitely
p97
aVCanvas.GetBackgroundImage
p98
aVCanvas.SetFontSize
p99
aVLocationSensor.SetEnabled
p100
aVPasswordTextBox.GotFocus
p101
aVcontrols_getPlainStartText
p102
aVTextBox.HideKeyboard
p103
aVTinyWebDB.StoreValue
p104
aVTexting.SetGoogleVoiceEnabled
p105
aVprocedures_callreturn
p106
aVBall.Dragged
p107
aVButton.LongClick
p108
aVCanvas.Clear
p109
aVCamera.SetUseFront
p110
aVTimePicker.SetText
p111
aVVideoPlayer.Pause
p112
aVLocationSensor.GetTimeInterval
p113
aVButton.Click
p114
aVmath_abs
p115
aVTinyDB.StoreValue
p116
aVClock.FormatDate
p117
aVHorizontalArrangement.SetHeight
p118
aVVideoPlayer.Start
p119
aVNxtDrive.MoveBackwardIndefinitely
p120
aVClock.AddSeconds
p121
aVNone.Start
p122
aVCheckBox.SetEnabled
p123
aVPasswordTextBox.LostFocus
p124
aVListPicker.GetElements
p125
aVLocationSensor.GetEnabled
p126
aVImageSprite.SetHeading
p127
aVBarcodeScanner.GetResult
p128
aVImageSprite.PointInDirection
p129
aVmath_is_a_number
p130
aVImage.GetWidth
p131
aVBluetoothClient.ReceiveSigned1ByteNumber
p132
aVPlayer.SetVolume
p133
aVBall.Bounce
p134
aVLocationSensor.SetTimeInterval
p135
aVCanvas.Touched
p136
aVtext_trim
p137
aVWebViewer.GetCurrentUrl
p138
aVCanvas.Flung
p139
aVcolor_light_gray
p140
aVClock.SetTimerEnabled
p141
aVButton.LostFocus
p142
aVNone.fet
p143
aVClock.Weekday
p144
aVPhoneNumberPicker.AfterPicking
p145
aVSoundRecorder.StoppedRecording
p146
aVSpeechRecognizer.GetResult
p147
aVSharing.ShareFile
p148
aVmath_random_int
p149
aVActivityStarter.SetExtraKey
p150
aVBall.SetEnabled
p151
aVClock.GetTimerEnabled
p152
aVListPicker.SetElementsFromString
p153
aVmath_convert_angles
p154
aVBluetoothClient.Connect
p155
aVOrientationSensor.GetPitch
p156
aVButton.GotFocus
p157
aVNxtUltrasonicSensor.SetBottomOfRange
p158
aVWeb.HtmlTextDecode
p159
aVLocationSensor.StatusChanged
p160
aVCamcorder.AfterRecording
p161
aVlists_append_list
p162
aVListView.GetSelectionIndex
p163
aVBall.SetInterval
p164
aVSpinner.DisplayDropdown
p165
aVlists_replace_item
p166
aVButton.SetText
p167
aVImagePicker.GetImage
p168
aVmath_format_as_decimal
p169
aVTinyDB.GetTags
p170
aVHorizontalArrangement.SetWidth
p171
aVNotifier.AfterChoosing
p172
aVTinyWebDB.ValueStored
p173
aVTableArrangement.SetHeight
p174
aVSound.SetSource
p175
aVClock.Hour
p176
aVtext_compare
p177
aVNxtDrive.MoveForward
p178
aVTexting.SendMessage
p179
aVcolor_magenta
p180
aVWeb.XMLTextDecode
p181
aVlists_select_item
p182
aVButton.SetBackgroundColor
p183
aVtext_replace_all
p184
aVLocationSensor.LongitudeFromAddress
p185
aVmath_round
p186
aVTableArrangement.SetVisible
p187
aVCanvas.SetBackgroundImage
p188
aVcolor_green
p189
aVlogic_operation
p190
aVButton.SetWidth
p191
aVlists_add_items
p192
aVcontrols_do_then_return
p193
aVLabel.GetBackgroundColor
p194
aVButton.SetFontBold
p195
aVSound.Resume
p196
aVlists_to_csv_table
p197
aVActivityStarter.SetActivityPackage
p198
aVProximitySensor.GetDistance
p199
aVImageSprite.SetEnabled
p200
aVNone.Vibrate
p201
aVFile.SaveFile
p202
aVDatePicker.SetText
p203
aVActivityStarter.SetExtraValue
p204
aVTwitter.Tweet
p205
aVImageSprite.GetWidth
p206
aVActivityStarter.SetDataUri
p207
aVLabel.SetFontSize
p208
aVNxtColorSensor.GetColor
p209
aVWebViewer.GetHomeUrl
p210
aVPhoneNumberPicker.GetPhoneNumber
p211
aVImageSprite.CollidedWith
p212
aVCamera.AfterPicture
p213
aVcontrols_eval_but_ignore
p214
aVSpinner.AfterSelecting
p215
aVLabel.GetHeight
p216
aVlists_is_list
p217
aVcontrols_while
p218
aVcontrols_closeScreen
p219
aVTexting.MessageReceived
p220
aVSpeechRecognizer.AfterGettingText
p221
aVActivityStarter.AfterActivity
p222
aVlists_insert_item
p223
aVTinyWebDB.GetValue
p224
aVBluetoothClient.SendBytes
p225
aVNearField.SetReadMode
p226
aVWeb.SetAllowCookies
p227
aVCheckBox.SetVisible
p228
aVButton.GetFontSize
p229
aVTextBox.SetTextColor
p230
aVglobal_declaration
p231
aVListPicker.BeforePicking
p232
aVlists_is_in
p233
aVBall.Flung
p234
aVClock.SystemTime
p235
aVBall.CollidedWith
p236
aVBall.MoveTo
p237
aVImageSprite.Flung
p238
aVButton.SetTextColor
p239
aVNotifier.ShowMessageDialog
p240
aVTextBox.RequestFocus
p241
aVClock.Timer
p242
aVlogic_compare
p243
aVPhoneCall.PhoneCallEnded
p244
aVlogic_boolean
p245
aVBluetoothClient.GetAvailable
p246
aVPasswordTextBox.SetHint
p247
aVTextToSpeech.AfterSpeaking
p248
aVTinyDB.ClearTag
p249
aVFusiontablesControl.GotResult
p250
aVBall.PointInDirection
p251
aVBall.SetHeading
p252
aVcolor_cyan
p253
aVNone.get
p254
aVSpinner.SetElements
p255
aVDatePicker.GetText
p256
aVCanvas.DrawTextAtAngle
p257
aVVerticalArrangement.SetWidth
p258
aVTimePicker.GetHour
p259
aVListView.SetSelectionIndex
p260
aVForm.ScreenOrientationChanged
p261
aVFile.ReadFrom
p262
aVListView.GetSelection
p263
aVButton.SetVisible
p264
aVTextBox.SetText
p265
aVImagePicker.SetVisible
p266
aVPlayer.GetLoop
p267
aVmath_compare
p268
aVCanvas.GetPaintColor
p269
aVImageSprite.SetRotates
p270
aVDatePicker.SetDateToDisplay
p271
aVButton.SetShowFeedback
p272
aVImageSprite.Bounce
p273
aVImageSprite.PointTowards
p274
aVImage.SetPicture
p275
aVAccelerometerSensor.SetEnabled
p276
aVImage.SetWidth
p277
aVImageSprite.GetSpeed
p278
aVWeb.GotText
p279
aVImageSprite.EdgeReached
p280
aVCanvas.GetBackgroundColor
p281
aVImageSprite.NoLongerCollidingWith
p282
aVWeb.BuildRequestData
p283
aVSlider.SetMinValue
p284
aVTexting.SetPhoneNumber
p285
aVtext_length
p286
aVButton.GetEnabled
p287
aVPlayer.Start
p288
aVSlider.SetColorRight
p289
aVNxtDrive.Stop
p290
aVListPicker.SetWidth
p291
aVPasswordTextBox.SetBackgroundColor
p292
aVlists_lookup_in_pairs
p293
aVcolor_orange
p294
aVTimePicker.TouchUp
p295
aVSoundRecorder.Stop
p296
aVForm.SetAlignHorizontal
p297
aVNearField.GetLastMessage
p298
aVNxtUltrasonicSensor.SetTopOfRange
p299
aVContactPicker.AfterPicking
p300
aVBall.EdgeReached
p301
aVForm.BackPressed
p302
aVWebViewer.GoBack
p303
aVBall.GetRadius
p304
aVmath_atan2
p305
aVcontrols_closeApplication
p306
aVListPicker.Open
p307
aVLabel.SetBackgroundColor
p308
aVImageSprite.GetHeading
p309
aVCamcorder.RecordVideo
p310
aVWebViewer.GoHome
p311
aVBall.GetVisible
p312
aVCanvas.SetPaintColor
p313
aVLocationSensor.GetAvailableProviders
p314
aVmath_cos
p315
aVtext
p316
aVDatePicker.LostFocus
p317
aVAccelerometerSensor.GetZAccel
p318
aVImagePicker.Open
p319
aVImageSprite.SetX
p320
aVImageSprite.SetY
p321
aVtext_join
p322
aVSharing.ShareFileWithMessage
p323
aVPhoneNumberPicker.GetImage
p324
aVPhoneCall.MakePhoneCall
p325
aVBall.GetHeading
p326
aVCanvas.Dragged
p327
aVLocationSensor.GetLatitude
p328
aVListView.SetElements
p329
aVListView.AfterPicking
p330
aVSound.Stop
p331
aVBluetoothClient.SetSecure
p332
aVForm.ErrorOccurred
p333
aVCanvas.SetBackgroundColor
p334
aVWeb.PostText
p335
aVSound.GetSource
p336
aVImagePicker.SetEnabled
p337
aVImagePicker.SetImage
p338
aVImageSprite.SetPicture
p339
aVListPicker.SetVisible
p340
aVLocationSensor.GetCurrentAddress
p341
aVClock.Second
p342
aVSpinner.SetSelection
p343
aVOrientationSensor.GetRoll
p344
aVImageSprite.SetHeight
p345
aVNxtUltrasonicSensor.WithinRange
p346
aVProximitySensor.ProximityChanged
p347
aVTextBox.GetHint
p348
aVWeb.GotFile
p349
aVForm.SetOpenScreenAnimation
p350
aVClock.WeekdayName
p351
aVBall.CollidingWith
p352
aVlists_create_with
p353
aVButton.TouchUp
p354
aVTexting.SetMessage
p355
aVListView.GetElements
p356
aVBall.SetVisible
p357
aVCanvas.SaveAs
p358
aVNone.Click
p359
aVContactPicker.SetEnabled
p360
aVtext_contains
p361
aVClock.SetTimerAlwaysFires
p362
aVtext_isEmpty
p363
aVBluetoothClient.SendText
p364
aVcolor_red
p365
aVTextBox.GetNumbersOnly
p366
aVActivityStarter.SetActivityClass
p367
aVPasswordTextBox.SetText
p368
aVCanvas.GetHeight
p369
aVNxtUltrasonicSensor.GetDistance
p370
aVcontrols_forEach
p371
aVButton.GetVisible
p372
aVSlider.SetColorLeft
p373
aVImageSprite.SetVisible
p374
aVTextBox.LostFocus
p375
aVPlayer.GetIsPlaying
p376
aVPhoneCall.GetPhoneNumber
p377
aVNearField.SetTextToWrite
p378
aVCheckBox.Changed
p379
aVImage.GetPicture
p380
aVlocal_declaration_expression
p381
aVTinyWebDB.GotValue
p382
aVNxtDrive.MoveBackward
p383
aVForm.SetCloseScreenAnimation
p384
aVcontrols_openAnotherScreen
p385
aVImage.SetVisible
p386
aVWebViewer.GoToUrl
p387
aVprocedures_callnoreturn
p388
aVCheckBox.GetText
p389
aVBall.SetRadius
p390
aVImagePicker.GetVisible
p391
aVNotifier.SetTextColor
p392
aVForm.SetScrollable
p393
aVNxtSoundSensor.SetAboveRangeEventEnabled
p394
aVcolor_dark_gray
p395
aVmath_add
p396
aVActivityStarter.SetAction
p397
aVlexical_variable_set
p398
aVcolor_blue
p399
aVWeb.SetUrl
p400
aVNxtDrive.TurnCounterClockwiseIndefinitely
p401
aVDatePicker.GetMonthInText
p402
aVForm.GetWidth
p403
aVPasswordTextBox.GetHint
p404
aVBluetoothClient.ReceiveText
p405
aVWeb.GetUrl
p406
aVForm.GetBackgroundColor
p407
aVBluetoothServer.ReceiveText
p408
aVListPicker.LostFocus
p409
aVmath_floor
p410
aVmath_random_float
p411
aVForm.Initialize
p412
aVTextBox.GetVisible
p413
aVTextBox.SetVisible
p414
aVCanvas.SetWidth
p415
aVNxtTouchSensor.Pressed
p416
aVBluetoothServer.StopAccepting
p417
aVNxtSoundSensor.AboveRange
p418
aVLocationSensor.SetDistanceInterval
p419
aVImagePicker.AfterPicking
p420
aVcolor_gray
p421
aVNotifier.ShowAlert
p422
aVBall.MoveIntoBounds
p423
aVBluetoothClient.Disconnect
p424
aVTinyDB.ClearAll
p425
aVDatePicker.GetMonth
p426
aVImageSprite.GetPicture
p427
aVlists_from_csv_table
p428
aVFusiontablesControl.SetApiKey
p429
aVPasswordTextBox.SetVisible
p430
aVImageSprite.MoveTo
p431
aVForm.OtherScreenClosed
p432
aVCheckBox.SetText
p433
aVSpinner.GetSelectionIndex
p434
aVListPicker.SetImage
p435
aVContactPicker.GetPhoneNumber
p436
aVTinyWebDB.SetServiceURL
p437
aVButton.SetFontSize
p438
aVBall.GetPaintColor
p439
aVtext_starts_at
p440
aVCanvas.Save
p441
aVSound.Pause
p442
aVForm.SetBackgroundImage
p443
aVActivityStarter.GetDataUri
p444
aVFusiontablesControl.ForgetLogin
p445
aVImageSprite.Touched
p446
aVButton.GetWidth
p447
aVBluetoothClient.IsDevicePaired
p448
aVcontrols_openAnotherScreenWithStartValue
p449
aVListView.SetBackgroundColor
p450
aVlogic_negate
p451
aVPasswordTextBox.GetText
p452
aVCanvas.SetVisible
p453
aVcolor_black
p454
aVTimePicker.GetMinute
p455
aVmath_on_list
p456
aVImageSprite.TouchUp
p457
aVSoundRecorder.AfterSoundRecorded
p458
aVBall.TouchDown
p459
aVCanvas.DrawText
p460
aVSpeechRecognizer.GetText
p461
aVPasswordTextBox.SetEnabled
p462
aVTextBox.SetHint
p463
aVNxtLightSensor.AboveRange
p464
aVCanvas.DrawPoint
p465
aVNearField.TagRead
p466
aVTextToSpeech.Speak
p467
aVmath_tan
p468
aVPlayer.Stop
p469
aVActivityStarter.SetDataType
p470
aVCanvas.GetWidth
p471
aVmath_power
p472
aVForm.SetTitle
p473
aVOrientationSensor.SetEnabled
p474
aVSpinner.GetSelection
p475
aVCanvas.TouchUp
p476
aVTextBox.GetEnabled
p477
aVForm.SetAboutScreen
p478
aVImageSprite.GetHeight
p479
aVImagePicker.GetSelection
p480
aVcolor_make_color
p481
aVCanvas.SetHeight
p482
aVSoundRecorder.Start
p483
aVBluetoothClient.ReceiveSignedBytes
p484
aVPhoneCall.SetPhoneNumber
p485
aVBall.GetX
p486
aVBall.GetY
p487
aVPlayer.SetSource
p488
aVClock.Now
p489
aVForm.GetBackgroundImage
p490
aVcolor_split_color
p491
aVTextBox.SetHeight
p492
aVClock.GetTimerInterval
p493
aVNotifier.AfterTextInput
p494
aVClock.MakeInstant
p495
aVListPicker.SetElements
p496
aVTextBox.SetEnabled
p497
aVImagePicker.SetHeight
p498
aVLabel.SetHeight
p499
aVTexting.GetMessage
p500
aVImageSprite.GetEnabled
p501
aVWeb.JsonTextDecode
p502
aVClock.Month
p503
aVListPicker.GetSelection
p504
aVLocationSensor.SetProviderLocked
p505
aVButton.SetEnabled
p506
aVWebViewer.SetHomeUrl
p507
aVListPicker.SetText
p508
aVListPicker.SetSelection
p509
aVBluetoothClient.ReceiveUnsignedBytes
p510
aVForm.GetScrollable
p511
aVButton.GetTextColor
p512
aVLocationSensor.GetHasAltitude
p513
aVSlider.SetThumbPosition
p514
aVListView.SetElementsFromString
p515
aVcontrols_forRange
p516
aVcontrols_if
p517
aVListPicker.SetTitle
p518
aVNxtLightSensor.SetAboveRangeEventEnabled
p519
aVcolor_white
p520
aVPlayer.GetSource
p521
aVBluetoothServer.AcceptConnection
p522
aVFusiontablesControl.SetQuery
p523
aVTexting.GetReceivingEnabled
p524
aVImageSprite.GetZ
p525
aVImageSprite.GetX
p526
aVImageSprite.GetY
p527
aVBluetoothServer.Disconnect
p528
aVClock.FormatTime
p529
aVTimePicker.SetEnabled
p530
aVLocationSensor.GetHasLongitudeLatitude
p531
aVOrientationSensor.OrientationChanged
p532
aVHorizontalArrangement.GetHeight
p533
aVOrientationSensor.GetAvailable
p534
aVPlayer.Pause
p535
aVBall.SetSpeed
p536
aVlists_is_empty
p537
aVImageSprite.CollidingWith
p538
aVLocationSensor.LatitudeFromAddress
p539
aVtext_split
p540
aVNxtDrive.MoveForwardIndefinitely
p541
aVcontrols_closeScreenWithValue
p542
aVActivityStarter.ResolveActivity
p543
aVtext_segment
p544
aVHorizontalArrangement.SetVisible
p545
aVprocedures_defnoreturn
p546
aVNxtUltrasonicSensor.SetWithinRangeEventEnabled
p547
aVSpeechRecognizer.BeforeGettingText
p548
aVLabel.GetTextColor
p549
aVDatePicker.GetYear
p550
aVNearField.TagWritten
p551
aVLocationSensor.SetProviderName
p552
aVImageSprite.SetWidth
p553
aVBluetoothClient.BytesAvailableToReceive
p554
aVlists_copy
p555
aVBarcodeScanner.AfterScan
p556
aVButton.TouchDown
p557
aVContactPicker.GetImage
p558
aVBluetoothClient.ReceiveUnsigned1ByteNumber
p559
aVButton.GetBackgroundColor
p560
aVPhoneCall.PhoneCallStarted
p561
aVlists_from_csv_row
p562
aVlexical_variable_get
p563
aVImage.SetAnimation
p564
aVNxtLightSensor.SetGenerateLight
p565
aVSpinner.SetSelectionIndex
p566
aVSlider.GetThumbPosition
p567
aVlists_pick_random_item
p568
aVBall.NoLongerCollidingWith
p569
aVBall.Touched
p570
aVButton.GetImage
p571
aVAccelerometerSensor.Shaking
p572
aVListPicker.GetText
p573
aVBluetoothClient.Send2ByteNumber
p574
aVFile.Delete
p575
aVForm.GetTitle
p576
aVCanvas.TouchDown
p577
aVPhoneNumberPicker.GetEnabled
p578
aVAccelerometerSensor.GetMinimumInterval
p579
aVVerticalArrangement.SetVisible
p580
aVButton.GetHeight
p581
aVImageSprite.SetSpeed
p582
aVTextToSpeech.SetLanguage
p583
aVDatePicker.LaunchPicker
p584
aVBarcodeScanner.DoScan
p585
aVFusiontablesControl.SendQuery
p586
aVNotifier.LogError
p587
aVTimePicker.SetTimeToDisplay
p588
aVActivityStarter.GetAction
p589
aVmath_ceiling
p590
aVListPicker.AfterPicking
p591
aVPlayer.SetPlayOnlyInForeground
p592
aVForm.GetHeight
p593
aVListPicker.GetHeight
p594
aVImageSprite.MoveIntoBounds
p595
aVLocationSensor.LocationChanged
p596
aVButton.GetShowFeedback
p597
aVCanvas.GetLineWidth
p598
aVCanvas.DrawCircle
p599
aVLabel.SetText
p600
aVButton.SetImage
p601
aVtext_changeCase
p602
aVNotifier.LogWarning
p603
aVSlider.SetMaxValue
p604
aVSlider.PositionChanged
p605
aVWebViewer.GoForward
p606
aVHorizontalArrangement.GetWidth
p607
aVSound.Play
p608
aVBluetoothServer.ConnectionAccepted
p609
aVListPicker.SetBackgroundColor
p610
aVListPicker.SetTextColor
p611
aVImageSprite.GetVisible
p612
aVImage.GetHeight
p613
aVProximitySensor.GetMaximumRange
p614
aVmath_neg
p615
aVBluetoothClient.Send1ByteNumber
p616
aVSlider.GetMaxValue
p617
aVDatePicker.AfterDateSet
p618
aVVerticalArrangement.GetVisible
p619
aVNotifier.ShowTextDialog
p620
aVlists_to_csv_row
p621
aVBluetoothServer.SendText
p622
aVWeb.Get
p623
aVNone.spaces
p624
aVClock.Year
p625
aVmath_multiply
p626
aVListPicker.SetEnabled
p627
aVprocedures_defreturn
p628
aVPlayer.Completed
p629
aVCheckBox.GetChecked
p630
aVVerticalArrangement.SetHeight
p631
aVClock.FormatDateTime
p632
aVImageSprite.Dragged
p633
aVTextBox.SetMultiLine
p634
aVmath_single
p635
aVcontrols_closeScreenWithPlainText
p636
aVlists_length
p637
aVLocationSensor.GetDistanceInterval
p638
aVLocationSensor.GetLongitude
p639
aVCheckBox.SetChecked
p640
aVLabel.SetTextColor
p641
aVOrientationSensor.GetAzimuth
p642
aVImageSprite.TouchDown
p643
aVClock.SetTimerInterval
p644
aVTextToSpeech.SetCountry
p645
aVTextBox.SetBackgroundColor
p646
aVNxtSoundSensor.GetSoundLevel
p647
aVVideoPlayer.SetVolume
p648
a.